target datalayout = "e-m:e-p270:32:32-p271:32:32-p272:64:64-i64:64-i128:128-f80:128-n8:16:32:64-S128"
target triple = "x86_64-pc-linux-gnu"

%struct.AVFormatContext = type { ptr, ptr, ptr, ptr, ptr, i32, i32, ptr, i32, ptr, i32, ptr, ptr, i64, i64, i64, i32, i32, i32, i64, i64, ptr, i32, i32, ptr, i32, i32, i32, i32, ptr, i64, i32, i32, %struct.AVIOInterruptCB, i32, i32, i32, i32, i64, i32, i32, i32, i32, i32, i32, i32, i32, i32, i32, i32, i32, i64, i32, i32, i32, i32, i32, ptr, ptr, ptr, ptr, i32, ptr, ptr, ptr, ptr, i32, ptr, ptr, i64, ptr, ptr, ptr, i64 }
%struct.AVIOInterruptCB = type { ptr, ptr }
%struct.AVStream = type { ptr, i32, i32, ptr, ptr, %struct.AVRational, i64, i64, i64, i32, i32, %struct.AVRational, ptr, %struct.AVRational, %struct.AVPacket, i32, %struct.AVRational, i32 }
%struct.AVPacket = type { ptr, i64, i64, ptr, i32, i32, i32, ptr, i32, i64, i64, ptr, ptr, %struct.AVRational }
%struct.AVRational = type { i32, i32 }
%struct.AVCodecParameters = type { i32, i32, i32, ptr, i32, ptr, i32, i32, i64, i32, i32, i32, i32, i32, i32, %struct.AVRational, %struct.AVRational, i32, i32, i32, i32, i32, i32, i32, %struct.AVChannelLayout, i32, i32, i32, i32, i32, i32 }
%struct.AVChannelLayout = type { i32, i32, %union.anon, ptr }
%union.anon = type { i64 }
%struct.PMPContext = type { i32, i32, i32, i32, ptr, i32 }

@.str.3 = private unnamed_addr constant [26 x i8] c"Unsupported video format\0A\00", align 1
@.str.4 = private unnamed_addr constant [33 x i8] c"AAC not yet correctly supported\0A\00", align 1
@.str.5 = private unnamed_addr constant [26 x i8] c"Unsupported audio format\0A\00", align 1
@.str.6 = private unnamed_addr constant [38 x i8] c"Encountered EOF while reading index.\0A\00", align 1
@.str.7 = private unnamed_addr constant [18 x i8] c"Packet too small\0A\00", align 1
@.str.8 = private unnamed_addr constant [31 x i8] c"File ends before first packet\0A\00", align 1

; Function Attrs: alwaysinline nounwind uwtable
define internal i64 @avio_tell(ptr noundef %0) #3 {
  %2 = alloca ptr, align 8
  store ptr %0, ptr %2, align 8, !tbaa !33
  %3 = load ptr, ptr %2, align 8, !tbaa !33
  %4 = call i64 @avio_seek(ptr noundef %3, i64 noundef 0, i32 noundef 1)
  ret i64 %4
}

; Function Attrs: nounwind uwtable
define internal i32 @pmp_header(ptr noundef %0) #0 {
  %2 = alloca i32, align 4
  %3 = alloca ptr, align 8
  %4 = alloca ptr, align 8
  %5 = alloca ptr, align 8
  %6 = alloca i32, align 4
  %7 = alloca i32, align 4
  %8 = alloca i32, align 4
  %9 = alloca i32, align 4
  %10 = alloca i32, align 4
  %11 = alloca i32, align 4
  %12 = alloca i32, align 4
  %13 = alloca i64, align 8
  %14 = alloca i64, align 8
  %15 = alloca ptr, align 8
  %16 = alloca i32, align 4
  %17 = alloca i32, align 4
  %18 = alloca i32, align 4
  %19 = alloca ptr, align 8
  store ptr %0, ptr %3, align 8, !tbaa !14
  call void @llvm.lifetime.start.p0(i64 8, ptr %4) #4
  %20 = load ptr, ptr %3, align 8, !tbaa !14
  %21 = getelementptr inbounds nuw %struct.AVFormatContext, ptr %20, i32 0, i32 3
  %22 = load ptr, ptr %21, align 8, !tbaa !16
  store ptr %22, ptr %4, align 8, !tbaa !31
  call void @llvm.lifetime.start.p0(i64 8, ptr %5) #4
  %23 = load ptr, ptr %3, align 8, !tbaa !14
  %24 = getelementptr inbounds nuw %struct.AVFormatContext, ptr %23, i32 0, i32 4
  %25 = load ptr, ptr %24, align 8, !tbaa !32
  store ptr %25, ptr %5, align 8, !tbaa !33
  call void @llvm.lifetime.start.p0(i64 4, ptr %6) #4
  call void @llvm.lifetime.start.p0(i64 4, ptr %7) #4
  call void @llvm.lifetime.start.p0(i64 4, ptr %8) #4
  call void @llvm.lifetime.start.p0(i64 4, ptr %9) #4
  store i32 0, ptr %9, align 4, !tbaa !34
  call void @llvm.lifetime.start.p0(i64 4, ptr %10) #4
  call void @llvm.lifetime.start.p0(i64 4, ptr %11) #4
  call void @llvm.lifetime.start.p0(i64 4, ptr %12) #4
  call void @llvm.lifetime.start.p0(i64 8, ptr %13) #4
  call void @llvm.lifetime.start.p0(i64 8, ptr %14) #4
  %26 = load ptr, ptr %5, align 8, !tbaa !33
  %27 = call i64 @avio_size(ptr noundef %26)
  store i64 %27, ptr %14, align 8, !tbaa !35
  call void @llvm.lifetime.start.p0(i64 8, ptr %15) #4
  %28 = load ptr, ptr %3, align 8, !tbaa !14
  %29 = call ptr @avformat_new_stream(ptr noundef %28, ptr noundef null)
  store ptr %29, ptr %15, align 8, !tbaa !36
  %30 = load ptr, ptr %15, align 8, !tbaa !36
  %31 = icmp ne ptr %30, null
  br i1 %31, label %33, label %32

32:                                               ; preds = %1
  store i32 -12, ptr %2, align 4
  store i32 1, ptr %16, align 4
  br label %211

33:                                               ; preds = %1
  %34 = load ptr, ptr %15, align 8, !tbaa !36
  %35 = getelementptr inbounds nuw %struct.AVStream, ptr %34, i32 0, i32 3
  %36 = load ptr, ptr %35, align 8, !tbaa !38
  %37 = getelementptr inbounds nuw %struct.AVCodecParameters, ptr %36, i32 0, i32 0
  store i32 0, ptr %37, align 8, !tbaa !45
  %38 = load ptr, ptr %5, align 8, !tbaa !33
  %39 = call i64 @avio_skip(ptr noundef %38, i64 noundef 8)
  %40 = load ptr, ptr %5, align 8, !tbaa !33
  %41 = call i32 @avio_rl32(ptr noundef %40)
  switch i32 %41, label %52 [
    i32 0, label %42
    i32 1, label %47
  ]

42:                                               ; preds = %33
  %43 = load ptr, ptr %15, align 8, !tbaa !36
  %44 = getelementptr inbounds nuw %struct.AVStream, ptr %43, i32 0, i32 3
  %45 = load ptr, ptr %44, align 8, !tbaa !38
  %46 = getelementptr inbounds nuw %struct.AVCodecParameters, ptr %45, i32 0, i32 1
  store i32 12, ptr %46, align 4, !tbaa !48
  br label %54

47:                                               ; preds = %33
  %48 = load ptr, ptr %15, align 8, !tbaa !36
  %49 = getelementptr inbounds nuw %struct.AVStream, ptr %48, i32 0, i32 3
  %50 = load ptr, ptr %49, align 8, !tbaa !38
  %51 = getelementptr inbounds nuw %struct.AVCodecParameters, ptr %50, i32 0, i32 1
  store i32 27, ptr %51, align 4, !tbaa !48
  br label %54

52:                                               ; preds = %33
  %53 = load ptr, ptr %3, align 8, !tbaa !14
  call void (ptr, i32, ptr, ...) @av_log(ptr noundef %53, i32 noundef 16, ptr noundef @.str.3)
  br label %54

54:                                               ; preds = %52, %47, %42
  %55 = load ptr, ptr %5, align 8, !tbaa !33
  %56 = call i32 @avio_rl32(ptr noundef %55)
  store i32 %56, ptr %8, align 4, !tbaa !34
  %57 = load ptr, ptr %5, align 8, !tbaa !33
  %58 = call i32 @avio_rl32(ptr noundef %57)
  %59 = load ptr, ptr %15, align 8, !tbaa !36
  %60 = getelementptr inbounds nuw %struct.AVStream, ptr %59, i32 0, i32 3
  %61 = load ptr, ptr %60, align 8, !tbaa !38
  %62 = getelementptr inbounds nuw %struct.AVCodecParameters, ptr %61, i32 0, i32 13
  store i32 %58, ptr %62, align 8, !tbaa !49
  %63 = load ptr, ptr %5, align 8, !tbaa !33
  %64 = call i32 @avio_rl32(ptr noundef %63)
  %65 = load ptr, ptr %15, align 8, !tbaa !36
  %66 = getelementptr inbounds nuw %struct.AVStream, ptr %65, i32 0, i32 3
  %67 = load ptr, ptr %66, align 8, !tbaa !38
  %68 = getelementptr inbounds nuw %struct.AVCodecParameters, ptr %67, i32 0, i32 14
  store i32 %64, ptr %68, align 4, !tbaa !50
  %69 = load ptr, ptr %5, align 8, !tbaa !33
  %70 = call i32 @avio_rl32(ptr noundef %69)
  store i32 %70, ptr %6, align 4, !tbaa !34
  %71 = load ptr, ptr %5, align 8, !tbaa !33
  %72 = call i32 @avio_rl32(ptr noundef %71)
  store i32 %72, ptr %7, align 4, !tbaa !34
  %73 = load ptr, ptr %15, align 8, !tbaa !36
  %74 = load i32, ptr %6, align 4, !tbaa !34
  %75 = load i32, ptr %7, align 4, !tbaa !34
  call void @avpriv_set_pts_info(ptr noundef %73, i32 noundef 32, i32 noundef %74, i32 noundef %75)
  %76 = load i32, ptr %8, align 4, !tbaa !34
  %77 = zext i32 %76 to i64
  %78 = load ptr, ptr %15, align 8, !tbaa !36
  %79 = getelementptr inbounds nuw %struct.AVStream, ptr %78, i32 0, i32 8
  store i64 %77, ptr %79, align 8, !tbaa !51
  %80 = load i32, ptr %8, align 4, !tbaa !34
  %81 = zext i32 %80 to i64
  %82 = load ptr, ptr %15, align 8, !tbaa !36
  %83 = getelementptr inbounds nuw %struct.AVStream, ptr %82, i32 0, i32 7
  store i64 %81, ptr %83, align 8, !tbaa !52
  %84 = load ptr, ptr %5, align 8, !tbaa !33
  %85 = call i32 @avio_rl32(ptr noundef %84)
  switch i32 %85, label %89 [
    i32 0, label %86
    i32 1, label %87
  ]

86:                                               ; preds = %54
  store i32 86017, ptr %9, align 4, !tbaa !34
  br label %91

87:                                               ; preds = %54
  %88 = load ptr, ptr %3, align 8, !tbaa !14
  call void (ptr, i32, ptr, ...) @av_log(ptr noundef %88, i32 noundef 16, ptr noundef @.str.4)
  store i32 86018, ptr %9, align 4, !tbaa !34
  br label %91

89:                                               ; preds = %54
  %90 = load ptr, ptr %3, align 8, !tbaa !14
  call void (ptr, i32, ptr, ...) @av_log(ptr noundef %90, i32 noundef 16, ptr noundef @.str.5)
  br label %91

91:                                               ; preds = %89, %87, %86
  %92 = load ptr, ptr %5, align 8, !tbaa !33
  %93 = call i32 @avio_rl16(ptr noundef %92)
  %94 = add i32 %93, 1
  %95 = load ptr, ptr %4, align 8, !tbaa !31
  %96 = getelementptr inbounds nuw %struct.PMPContext, ptr %95, i32 0, i32 1
  store i32 %94, ptr %96, align 4, !tbaa !53
  %97 = load ptr, ptr %5, align 8, !tbaa !33
  %98 = call i64 @avio_skip(ptr noundef %97, i64 noundef 10)
  %99 = load ptr, ptr %5, align 8, !tbaa !33
  %100 = call i32 @avio_rl32(ptr noundef %99)
  store i32 %100, ptr %10, align 4, !tbaa !34
  %101 = load ptr, ptr %5, align 8, !tbaa !33
  %102 = call i32 @avio_rl32(ptr noundef %101)
  %103 = add i32 %102, 1
  store i32 %103, ptr %11, align 4, !tbaa !34
  %104 = load ptr, ptr %5, align 8, !tbaa !33
  %105 = call i64 @avio_tell(ptr noundef %104)
  %106 = load i32, ptr %8, align 4, !tbaa !34
  %107 = zext i32 %106 to i64
  %108 = mul nsw i64 4, %107
  %109 = add nsw i64 %105, %108
  store i64 %109, ptr %13, align 8, !tbaa !35
  store i32 0, ptr %12, align 4, !tbaa !34
  br label %110

110:                                              ; preds = %165, %91
  %111 = load i32, ptr %12, align 4, !tbaa !34
  %112 = load i32, ptr %8, align 4, !tbaa !34
  %113 = icmp ult i32 %111, %112
  br i1 %113, label %114, label %168

114:                                              ; preds = %110
  call void @llvm.lifetime.start.p0(i64 4, ptr %17) #4
  %115 = load ptr, ptr %5, align 8, !tbaa !33
  %116 = call i32 @avio_rl32(ptr noundef %115)
  store i32 %116, ptr %17, align 4, !tbaa !34
  call void @llvm.lifetime.start.p0(i64 4, ptr %18) #4
  %117 = load i32, ptr %17, align 4, !tbaa !34
  %118 = and i32 %117, 1
  %119 = icmp ne i32 %118, 0
  %120 = select i1 %119, i32 1, i32 0
  store i32 %120, ptr %18, align 4, !tbaa !34
  %121 = load ptr, ptr %5, align 8, !tbaa !33
  %122 = call i32 @avio_feof(ptr noundef %121)
  %123 = icmp ne i32 %122, 0
  br i1 %123, label %124, label %126

124:                                              ; preds = %114
  %125 = load ptr, ptr %3, align 8, !tbaa !14
  call void (ptr, i32, ptr, ...) @av_log(ptr noundef %125, i32 noundef 8, ptr noundef @.str.6)
  store i32 -1094995529, ptr %2, align 4
  store i32 1, ptr %16, align 4
  br label %162

126:                                              ; preds = %114
  %127 = load i32, ptr %17, align 4, !tbaa !34
  %128 = lshr i32 %127, 1
  store i32 %128, ptr %17, align 4, !tbaa !34
  %129 = load i32, ptr %17, align 4, !tbaa !34
  %130 = load ptr, ptr %4, align 8, !tbaa !31
  %131 = getelementptr inbounds nuw %struct.PMPContext, ptr %130, i32 0, i32 1
  %132 = load i32, ptr %131, align 4, !tbaa !53
  %133 = mul nsw i32 4, %132
  %134 = add nsw i32 9, %133
  %135 = icmp ult i32 %129, %134
  br i1 %135, label %136, label %138

136:                                              ; preds = %126
  %137 = load ptr, ptr %3, align 8, !tbaa !14
  call void (ptr, i32, ptr, ...) @av_log(ptr noundef %137, i32 noundef 16, ptr noundef @.str.7)
  store i32 -1094995529, ptr %2, align 4
  store i32 1, ptr %16, align 4
  br label %162

138:                                              ; preds = %126
  %139 = load ptr, ptr %15, align 8, !tbaa !36
  %140 = load i64, ptr %13, align 8, !tbaa !35
  %141 = load i32, ptr %12, align 4, !tbaa !34
  %142 = zext i32 %141 to i64
  %143 = load i32, ptr %17, align 4, !tbaa !34
  %144 = load i32, ptr %18, align 4, !tbaa !34
  %145 = call i32 @av_add_index_entry(ptr noundef %139, i64 noundef %140, i64 noundef %142, i32 noundef %143, i32 noundef 0, i32 noundef %144)
  %146 = load i32, ptr %17, align 4, !tbaa !34
  %147 = zext i32 %146 to i64
  %148 = load i64, ptr %13, align 8, !tbaa !35
  %149 = add i64 %148, %147
  store i64 %149, ptr %13, align 8, !tbaa !35
  %150 = load i64, ptr %14, align 8, !tbaa !35
  %151 = icmp sgt i64 %150, 0
  br i1 %151, label %152, label %161

152:                                              ; preds = %138
  %153 = load i32, ptr %12, align 4, !tbaa !34
  %154 = icmp eq i32 %153, 0
  br i1 %154, label %155, label %161

155:                                              ; preds = %152
  %156 = load i64, ptr %13, align 8, !tbaa !35
  %157 = load i64, ptr %14, align 8, !tbaa !35
  %158 = icmp ugt i64 %156, %157
  br i1 %158, label %159, label %161

159:                                              ; preds = %155
  %160 = load ptr, ptr %3, align 8, !tbaa !14
  call void (ptr, i32, ptr, ...) @av_log(ptr noundef %160, i32 noundef 16, ptr noundef @.str.8)
  store i32 -1094995529, ptr %2, align 4
  store i32 1, ptr %16, align 4
  br label %162

161:                                              ; preds = %155, %152, %138
  store i32 0, ptr %16, align 4
  br label %162

162:                                              ; preds = %161, %159, %136, %124
  call void @llvm.lifetime.end.p0(i64 4, ptr %18) #4
  call void @llvm.lifetime.end.p0(i64 4, ptr %17) #4
  %163 = load i32, ptr %16, align 4
  switch i32 %163, label %211 [
    i32 0, label %164
  ]

164:                                              ; preds = %162
  br label %165

165:                                              ; preds = %164
  %166 = load i32, ptr %12, align 4, !tbaa !34
  %167 = add i32 %166, 1
  store i32 %167, ptr %12, align 4, !tbaa !34
  br label %110, !llvm.loop !56

168:                                              ; preds = %110
  store i32 1, ptr %12, align 4, !tbaa !34
  br label %169

169:                                              ; preds = %207, %168
  %170 = load i32, ptr %12, align 4, !tbaa !34
  %171 = load ptr, ptr %4, align 8, !tbaa !31
  %172 = getelementptr inbounds nuw %struct.PMPContext, ptr %171, i32 0, i32 1
  %173 = load i32, ptr %172, align 4, !tbaa !53
  %174 = icmp ult i32 %170, %173
  br i1 %174, label %175, label %210

175:                                              ; preds = %169
  call void @llvm.lifetime.start.p0(i64 8, ptr %19) #4
  %176 = load ptr, ptr %3, align 8, !tbaa !14
  %177 = call ptr @avformat_new_stream(ptr noundef %176, ptr noundef null)
  store ptr %177, ptr %19, align 8, !tbaa !36
  %178 = load ptr, ptr %19, align 8, !tbaa !36
  %179 = icmp ne ptr %178, null
  br i1 %179, label %181, label %180

180:                                              ; preds = %175
  store i32 -12, ptr %2, align 4
  store i32 1, ptr %16, align 4
  br label %204

181:                                              ; preds = %175
  %182 = load ptr, ptr %19, align 8, !tbaa !36
  %183 = getelementptr inbounds nuw %struct.AVStream, ptr %182, i32 0, i32 3
  %184 = load ptr, ptr %183, align 8, !tbaa !38
  %185 = getelementptr inbounds nuw %struct.AVCodecParameters, ptr %184, i32 0, i32 0
  store i32 1, ptr %185, align 8, !tbaa !45
  %186 = load i32, ptr %9, align 4, !tbaa !34
  %187 = load ptr, ptr %19, align 8, !tbaa !36
  %188 = getelementptr inbounds nuw %struct.AVStream, ptr %187, i32 0, i32 3
  %189 = load ptr, ptr %188, align 8, !tbaa !38
  %190 = getelementptr inbounds nuw %struct.AVCodecParameters, ptr %189, i32 0, i32 1
  store i32 %186, ptr %190, align 4, !tbaa !48
  %191 = load i32, ptr %11, align 4, !tbaa !34
  %192 = load ptr, ptr %19, align 8, !tbaa !36
  %193 = getelementptr inbounds nuw %struct.AVStream, ptr %192, i32 0, i32 3
  %194 = load ptr, ptr %193, align 8, !tbaa !38
  %195 = getelementptr inbounds nuw %struct.AVCodecParameters, ptr %194, i32 0, i32 24
  %196 = getelementptr inbounds nuw %struct.AVChannelLayout, ptr %195, i32 0, i32 1
  store i32 %191, ptr %196, align 4, !tbaa !58
  %197 = load i32, ptr %10, align 4, !tbaa !34
  %198 = load ptr, ptr %19, align 8, !tbaa !36
  %199 = getelementptr inbounds nuw %struct.AVStream, ptr %198, i32 0, i32 3
  %200 = load ptr, ptr %199, align 8, !tbaa !38
  %201 = getelementptr inbounds nuw %struct.AVCodecParameters, ptr %200, i32 0, i32 25
  store i32 %197, ptr %201, align 8, !tbaa !59
  %202 = load ptr, ptr %19, align 8, !tbaa !36
  %203 = load i32, ptr %10, align 4, !tbaa !34
  call void @avpriv_set_pts_info(ptr noundef %202, i32 noundef 32, i32 noundef 1, i32 noundef %203)
  store i32 0, ptr %16, align 4
  br label %204

204:                                              ; preds = %181, %180
  call void @llvm.lifetime.end.p0(i64 8, ptr %19) #4
  %205 = load i32, ptr %16, align 4
  switch i32 %205, label %211 [
    i32 0, label %206
  ]

206:                                              ; preds = %204
  br label %207

207:                                              ; preds = %206
  %208 = load i32, ptr %12, align 4, !tbaa !34
  %209 = add i32 %208, 1
  store i32 %209, ptr %12, align 4, !tbaa !34
  br label %169, !llvm.loop !60

210:                                              ; preds = %169
  store i32 0, ptr %2, align 4
  store i32 1, ptr %16, align 4
  br label %211

211:                                              ; preds = %210, %204, %162, %32
  call void @llvm.lifetime.end.p0(i64 8, ptr %15) #4
  call void @llvm.lifetime.end.p0(i64 8, ptr %14) #4
  call void @llvm.lifetime.end.p0(i64 8, ptr %13) #4
  call void @llvm.lifetime.end.p0(i64 4, ptr %12) #4
  call void @llvm.lifetime.end.p0(i64 4, ptr %11) #4
  call void @llvm.lifetime.end.p0(i64 4, ptr %10) #4
  call void @llvm.lifetime.end.p0(i64 4, ptr %9) #4
  call void @llvm.lifetime.end.p0(i64 4, ptr %8) #4
  call void @llvm.lifetime.end.p0(i64 4, ptr %7) #4
  call void @llvm.lifetime.end.p0(i64 4, ptr %6) #4
  call void @llvm.lifetime.end.p0(i64 8, ptr %5) #4
  call void @llvm.lifetime.end.p0(i64 8, ptr %4) #4
  %212 = load i32, ptr %2, align 4
  ret i32 %212
}