; Function Attrs: nounwind uwtable
define internal range(i32 -1094995529, 1) i32 @pmp_header(ptr noundef %0) #1 {
  %2 = getelementptr inbounds nuw i8, ptr %0, i64 24
  %3 = load ptr, ptr %2, align 8, !tbaa !12
  %4 = getelementptr inbounds nuw i8, ptr %0, i64 32
  %5 = load ptr, ptr %4, align 8, !tbaa !27
  %6 = tail call i64 @avio_size(ptr noundef %5) #4
  %.fr105 = freeze i64 %6
  %7 = tail call ptr @avformat_new_stream(ptr noundef %0, ptr noundef null) #4
  %.not = icmp eq ptr %7, null
  br i1 %.not, label %.thread, label %8

8:                                                ; preds = %1
  %9 = getelementptr inbounds nuw i8, ptr %7, i64 16
  %10 = load ptr, ptr %9, align 8, !tbaa !28
  store i32 0, ptr %10, align 8, !tbaa !35
  %11 = tail call i64 @avio_skip(ptr noundef %5, i64 noundef 8) #4
  %12 = tail call i32 @avio_rl32(ptr noundef %5) #4
  switch i32 %12, label %19 [
    i32 0, label %13
    i32 1, label %16
  ]

13:                                               ; preds = %8
  %14 = load ptr, ptr %9, align 8, !tbaa !28
  %15 = getelementptr inbounds nuw i8, ptr %14, i64 4
  store i32 12, ptr %15, align 4, !tbaa !38
  br label %20

16:                                               ; preds = %8
  %17 = load ptr, ptr %9, align 8, !tbaa !28
  %18 = getelementptr inbounds nuw i8, ptr %17, i64 4
  store i32 27, ptr %18, align 4, !tbaa !38
  br label %20

19:                                               ; preds = %8
  tail call void (ptr, i32, ptr, ...) @av_log(ptr noundef nonnull %0, i32 noundef 16, ptr noundef nonnull @.str.3) #4
  br label %20

20:                                               ; preds = %19, %16, %13
  %21 = tail call i32 @avio_rl32(ptr noundef %5) #4
  %22 = tail call i32 @avio_rl32(ptr noundef %5) #4
  %23 = load ptr, ptr %9, align 8, !tbaa !28
  %24 = getelementptr inbounds nuw i8, ptr %23, i64 72
  store i32 %22, ptr %24, align 8, !tbaa !39
  %25 = tail call i32 @avio_rl32(ptr noundef %5) #4
  %26 = load ptr, ptr %9, align 8, !tbaa !28
  %27 = getelementptr inbounds nuw i8, ptr %26, i64 76
  store i32 %25, ptr %27, align 4, !tbaa !40
  %28 = tail call i32 @avio_rl32(ptr noundef %5) #4
  %29 = tail call i32 @avio_rl32(ptr noundef %5) #4
  tail call void @avpriv_set_pts_info(ptr noundef nonnull %7, i32 noundef 32, i32 noundef %28, i32 noundef %29) #4
  %30 = zext i32 %21 to i64
  %31 = getelementptr inbounds nuw i8, ptr %7, i64 56
  store i64 %30, ptr %31, align 8, !tbaa !41
  %32 = getelementptr inbounds nuw i8, ptr %7, i64 48
  store i64 %30, ptr %32, align 8, !tbaa !42
  %33 = tail call i32 @avio_rl32(ptr noundef %5) #4
  switch i32 %33, label %34 [
    i32 0, label %35
    i32 1, label %.sink.split
  ]

34:                                               ; preds = %20
  br label %.sink.split

.sink.split:                                      ; preds = %20, %34
  %.str.5.sink = phi ptr [ @.str.5, %34 ], [ @.str.4, %20 ]
  %.076.ph = phi i32 [ 0, %34 ], [ 86018, %20 ]
  tail call void (ptr, i32, ptr, ...) @av_log(ptr noundef nonnull %0, i32 noundef 16, ptr noundef nonnull %.str.5.sink) #4
  br label %35

35:                                               ; preds = %.sink.split, %20
  %.076 = phi i32 [ 86017, %20 ], [ %.076.ph, %.sink.split ]
  %36 = tail call i32 @avio_rl16(ptr noundef %5) #4
  %37 = add i32 %36, 1
  %38 = getelementptr inbounds nuw i8, ptr %3, i64 4
  store i32 %37, ptr %38, align 4, !tbaa !43
  %39 = tail call i64 @avio_skip(ptr noundef %5, i64 noundef 10) #4
  %40 = tail call i32 @avio_rl32(ptr noundef %5) #4
  %41 = tail call i32 @avio_rl32(ptr noundef %5) #4
  %42 = add i32 %41, 1
  %43 = tail call i64 @avio_seek(ptr noundef %5, i64 noundef 0, i32 noundef 1) #4
  %.not104 = icmp eq i32 %21, 0
  br i1 %.not104, label %.preheader, label %.lr.ph

.lr.ph:                                           ; preds = %35
  %44 = shl nuw nsw i64 %30, 2
  %45 = add nsw i64 %43, %44
  %46 = icmp sgt i64 %.fr105, 0
  br i1 %46, label %.lr.ph.split, label %.lr.ph.split.us

.lr.ph.split.us:                                  ; preds = %.lr.ph, %56
  %indvars.iv = phi i64 [ %indvars.iv.next, %56 ], [ 0, %.lr.ph ]
  %.08196.us = phi i64 [ %59, %56 ], [ %45, %.lr.ph ]
  %47 = tail call i32 @avio_rl32(ptr noundef %5) #4
  %48 = and i32 %47, 1
  %49 = tail call i32 @avio_feof(ptr noundef %5) #4
  %.not90.us = icmp eq i32 %49, 0
  br i1 %.not90.us, label %50, label %.split.us

50:                                               ; preds = %.lr.ph.split.us
  %51 = lshr i32 %47, 1
  %52 = load i32, ptr %38, align 4, !tbaa !43
  %53 = shl nsw i32 %52, 2
  %54 = add nsw i32 %53, 9
  %55 = icmp ult i32 %51, %54
  br i1 %55, label %.split99.us, label %56

56:                                               ; preds = %50
  %57 = tail call i32 @av_add_index_entry(ptr noundef nonnull %7, i64 noundef %.08196.us, i64 noundef %indvars.iv, i32 noundef %51, i32 noundef 0, i32 noundef %48) #4
  %58 = zext nneg i32 %51 to i64
  %59 = add i64 %.08196.us, %58
  %indvars.iv.next = add nuw nsw i64 %indvars.iv, 1
  %exitcond.not = icmp eq i64 %indvars.iv.next, %30
  br i1 %exitcond.not, label %.preheader, label %.lr.ph.split.us, !llvm.loop !46

60:                                               ; preds = %72
  %indvars.iv.next111 = add nuw nsw i64 %indvars.iv110, 1
  %exitcond114.not = icmp eq i64 %indvars.iv.next111, %30
  br i1 %exitcond114.not, label %.preheader, label %.lr.ph.split, !llvm.loop !46

.preheader:                                       ; preds = %56, %60, %35
  %61 = load i32, ptr %38, align 4, !tbaa !43
  %62 = icmp ugt i32 %61, 1
  br i1 %62, label %.lr.ph101, label %.thread

.lr.ph.split:                                     ; preds = %.lr.ph, %60
  %indvars.iv110 = phi i64 [ %indvars.iv.next111, %60 ], [ 0, %.lr.ph ]
  %.08196 = phi i64 [ %75, %60 ], [ %45, %.lr.ph ]
  %63 = tail call i32 @avio_rl32(ptr noundef %5) #4
  %64 = and i32 %63, 1
  %65 = tail call i32 @avio_feof(ptr noundef %5) #4
  %.not90 = icmp eq i32 %65, 0
  br i1 %.not90, label %66, label %.split.us

.split.us:                                        ; preds = %.lr.ph.split.us, %.lr.ph.split
  tail call void (ptr, i32, ptr, ...) @av_log(ptr noundef %0, i32 noundef 8, ptr noundef nonnull @.str.6) #4
  br label %.thread

66:                                               ; preds = %.lr.ph.split
  %67 = lshr i32 %63, 1
  %68 = load i32, ptr %38, align 4, !tbaa !43
  %69 = shl nsw i32 %68, 2
  %70 = add nsw i32 %69, 9
  %71 = icmp ult i32 %67, %70
  br i1 %71, label %.split99.us, label %72

.split99.us:                                      ; preds = %50, %66
  tail call void (ptr, i32, ptr, ...) @av_log(ptr noundef %0, i32 noundef 16, ptr noundef nonnull @.str.7) #4
  br label %.thread

72:                                               ; preds = %66
  %73 = tail call i32 @av_add_index_entry(ptr noundef nonnull %7, i64 noundef %.08196, i64 noundef %indvars.iv110, i32 noundef %67, i32 noundef 0, i32 noundef %64) #4
  %74 = zext nneg i32 %67 to i64
  %75 = add i64 %.08196, %74
  %76 = icmp eq i64 %indvars.iv110, 0
  %77 = icmp ugt i64 %75, %.fr105
  %or.cond91 = select i1 %76, i1 %77, i1 false
  br i1 %or.cond91, label %78, label %60

78:                                               ; preds = %72
  tail call void (ptr, i32, ptr, ...) @av_log(ptr noundef %0, i32 noundef 16, ptr noundef nonnull @.str.8) #4
  br label %.thread

.lr.ph101:                                        ; preds = %.preheader, %80
  %.180100 = phi i32 [ %86, %80 ], [ 1, %.preheader ]
  %79 = tail call ptr @avformat_new_stream(ptr noundef %0, ptr noundef null) #4
  %.not88.not = icmp eq ptr %79, null
  br i1 %.not88.not, label %.thread, label %80

80:                                               ; preds = %.lr.ph101
  %81 = getelementptr inbounds nuw i8, ptr %79, i64 16
  %82 = load ptr, ptr %81, align 8, !tbaa !28
  store i32 1, ptr %82, align 8, !tbaa !35
  %83 = getelementptr inbounds nuw i8, ptr %82, i64 4
  store i32 %.076, ptr %83, align 4, !tbaa !38
  %84 = getelementptr inbounds nuw i8, ptr %82, i64 132
  store i32 %42, ptr %84, align 4, !tbaa !48
  %85 = getelementptr inbounds nuw i8, ptr %82, i64 152
  store i32 %40, ptr %85, align 8, !tbaa !49
  tail call void @avpriv_set_pts_info(ptr noundef nonnull %79, i32 noundef 32, i32 noundef 1, i32 noundef %40) #4
  %86 = add nuw i32 %.180100, 1
  %87 = load i32, ptr %38, align 4, !tbaa !43
  %88 = icmp ult i32 %86, %87
  br i1 %88, label %.lr.ph101, label %.thread, !llvm.loop !50

.thread:                                          ; preds = %80, %.lr.ph101, %.preheader, %78, %.split99.us, %.split.us, %1
  %.0 = phi i32 [ -12, %1 ], [ -1094995529, %.split.us ], [ -1094995529, %.split99.us ], [ -1094995529, %78 ], [ 0, %.preheader ], [ 0, %80 ], [ -12, %.lr.ph101 ]
  ret i32 %.0
}